; Function Attrs: mustprogress nofree norecurse nosync nounwind willreturn memory(argmem: readwrite) uwtable
define void @_ZN6google8protobuf11UInt64Value12InternalSwapEPS1_(ptr nocapture noundef nonnull align 8 dereferenceable(32) %this, ptr noalias nocapture noundef %other) local_unnamed_addr #10 align 2 {
entry:
  %_internal_metadata_ = getelementptr inbounds i8, ptr %this, i64 8
  %_internal_metadata_2 = getelementptr inbounds i8, ptr %other, i64 8
  %0 = load <2 x i64>, ptr %_internal_metadata_2, align 8
  %1 = load <2 x i64>, ptr %_internal_metadata_, align 8
  store <2 x i64> %0, ptr %_internal_metadata_, align 8
  store <2 x i64> %1, ptr %_internal_metadata_2, align 8
  ret void
}